; Function Attrs: mustprogress nofree norecurse nosync nounwind willreturn memory(read, inaccessiblemem: none) uwtable
define dso_local noundef i32 @_ZN5clang22NestedNameSpecifierLoc13getDataLengthEPNS_19NestedNameSpecifierE(ptr noundef readonly %0) local_unnamed_addr #2 align 2 {
  %.not6 = icmp eq ptr %0, null
  br i1 %.not6, label %._crit_edge, label %.lr.ph

.lr.ph:                                           ; preds = %1, %_ZN5clang22NestedNameSpecifierLoc18getLocalDataLengthEPNS_19NestedNameSpecifierE.exit
  %.08 = phi i32 [ %6, %_ZN5clang22NestedNameSpecifierLoc18getLocalDataLengthEPNS_19NestedNameSpecifierE.exit ], [ 0, %1 ]
  %.047 = phi ptr [ %8, %_ZN5clang22NestedNameSpecifierLoc18getLocalDataLengthEPNS_19NestedNameSpecifierE.exit ], [ %0, %1 ]
  %2 = getelementptr inbounds nuw i8, ptr %.047, i64 16
  %3 = load ptr, ptr %2, align 8
  %.not.i.i = icmp eq ptr %3, null
  %.phi.trans.insert = getelementptr inbounds nuw i8, ptr %.047, i64 8
  %.0.copyload.i.i.i.i.pre = load i64, ptr %.phi.trans.insert, align 8
  br i1 %.not.i.i, label %_ZN5clang22NestedNameSpecifierLoc18getLocalDataLengthEPNS_19NestedNameSpecifierE.exit, label %switch.lookup

switch.lookup:                                    ; preds = %.lr.ph
  %4 = lshr i64 %.0.copyload.i.i.i.i.pre, 1
  %5 = and i64 %4, 3
  %switch.gep = getelementptr inbounds [4 x i32], ptr @switch.table._ZN5clang29NestedNameSpecifierLocBuilder5AdoptENS_22NestedNameSpecifierLocE, i64 0, i64 %5
  %switch.load = load i32, ptr %switch.gep, align 4
  br label %_ZN5clang22NestedNameSpecifierLoc18getLocalDataLengthEPNS_19NestedNameSpecifierE.exit

_ZN5clang22NestedNameSpecifierLoc18getLocalDataLengthEPNS_19NestedNameSpecifierE.exit: ; preds = %switch.lookup, %.lr.ph
  %.0.i = phi i32 [ 4, %.lr.ph ], [ %switch.load, %switch.lookup ]
  %6 = add i32 %.0.i, %.08
  %7 = and i64 %.0.copyload.i.i.i.i.pre, -8
  %8 = inttoptr i64 %7 to ptr
  %.not = icmp eq i64 %7, 0
  br i1 %.not, label %._crit_edge, label %.lr.ph, !llvm.loop !7

._crit_edge:                                      ; preds = %_ZN5clang22NestedNameSpecifierLoc18getLocalDataLengthEPNS_19NestedNameSpecifierE.exit, %1
  %.0.lcssa = phi i32 [ 0, %1 ], [ %6, %_ZN5clang22NestedNameSpecifierLoc18getLocalDataLengthEPNS_19NestedNameSpecifierE.exit ]
  ret i32 %.0.lcssa
}